; Function Attrs: nounwind sspstrong uwtable
define internal noundef i64 @any_i(i64 %0, i64 noundef %1, i32 noundef %2, ptr noundef %3, i64 %4) #0 {
  switch i32 %2, label %8 [
    i32 0, label %enum_any_func.exit
    i32 1, label %6
  ]

6:                                                ; preds = %5
  %7 = load i64, ptr %3, align 8, !tbaa !7
  br label %rb_enum_values_pack.exit

8:                                                ; preds = %5
  %9 = sext i32 %2 to i64
  %10 = tail call i64 @rb_ary_new_from_values(i64 noundef %9, ptr noundef %3) #14
  br label %rb_enum_values_pack.exit

rb_enum_values_pack.exit:                         ; preds = %6, %8
  %.0.i = phi i64 [ %7, %6 ], [ %10, %8 ]
  %11 = and i64 %.0.i, -5
  %.not.i = icmp eq i64 %11, 0
  br i1 %.not.i, label %enum_any_func.exit, label %12

12:                                               ; preds = %rb_enum_values_pack.exit
  %13 = inttoptr i64 %1 to ptr
  %14 = getelementptr inbounds nuw i8, ptr %13, i64 16
  store i64 20, ptr %14, align 8, !tbaa !7
  tail call void @rb_iter_break() #15
  unreachable

enum_any_func.exit:                               ; preds = %5, %rb_enum_values_pack.exit
  ret i64 4
}